; Function Attrs: mustprogress uwtable
define hidden void @_Z15init_proof_cmdsR11cmd_context(ptr noundef nonnull align 8 dereferenceable(896) %0) local_unnamed_addr #3 {
  %2 = getelementptr inbounds nuw i8, ptr %0, i64 280
  %3 = load ptr, ptr %2, align 8, !tbaa !14
  %.not.i = icmp eq ptr %3, null
  br i1 %.not.i, label %4, label %_ZL3getR11cmd_context.exit

4:                                                ; preds = %1
  %5 = tail call noalias noundef ptr @_ZN6memory8allocateEm(i64 noundef 184)
  tail call void @_ZN14proof_cmds_impC2ER11cmd_context(ptr noundef nonnull align 8 dereferenceable(184) %5, ptr noundef nonnull align 8 dereferenceable(896) %0)
  %6 = load ptr, ptr %2, align 8, !tbaa !14
  %.not.i.i.i = icmp eq ptr %6, %5
  br i1 %.not.i.i.i, label %_ZL3getR11cmd_context.exit, label %7

7:                                                ; preds = %4
  %8 = icmp eq ptr %6, null
  br i1 %8, label %_Z7deallocI10proof_cmdsEvPT_.exit.i.i.i, label %9

9:                                                ; preds = %7
  %10 = load ptr, ptr %6, align 8, !tbaa !3
  %11 = load ptr, ptr %10, align 8
  tail call void %11(ptr noundef nonnull align 8 dereferenceable(8) %6) #19
  tail call void @_ZN6memory10deallocateEPv(ptr noundef nonnull %6)
  br label %_Z7deallocI10proof_cmdsEvPT_.exit.i.i.i

_Z7deallocI10proof_cmdsEvPT_.exit.i.i.i:          ; preds = %9, %7
  store ptr %5, ptr %2, align 8, !tbaa !14
  br label %_ZL3getR11cmd_context.exit

_ZL3getR11cmd_context.exit:                       ; preds = %1, %4, %_Z7deallocI10proof_cmdsEvPT_.exit.i.i.i
  ret void
}